target datalayout = "e-m:e-p270:32:32-p271:32:32-p272:64:64-i64:64-i128:128-f80:128-n8:16:32:64-S128"
target triple = "x86_64-pc-linux-gnu"

%union.ListCell = type { ptr }
%struct.List = type { i32, i32, i32, ptr, [0 x %union.ListCell] }

; Function Attrs: nounwind uwtable
define internal void @list_free_private(ptr noundef %0, i1 noundef zeroext %1) #0 {
  %3 = alloca ptr, align 8
  %4 = alloca i8, align 1
  %5 = alloca i32, align 4
  store ptr %0, ptr %3, align 8
  %6 = zext i1 %1 to i8
  store i8 %6, ptr %4, align 1
  %7 = load ptr, ptr %3, align 8
  %8 = icmp eq ptr %7, null
  br i1 %8, label %9, label %10

9:                                                ; preds = %2
  br label %47

10:                                               ; preds = %2
  %11 = load i8, ptr %4, align 1, !range !29, !noundef !30
  %12 = trunc i8 %11 to i1
  br i1 %12, label %13, label %33

13:                                               ; preds = %10
  call void @llvm.lifetime.start.p0(i64 4, ptr %5) #7
  store i32 0, ptr %5, align 4
  br label %14

14:                                               ; preds = %29, %13
  %15 = load i32, ptr %5, align 4
  %16 = load ptr, ptr %3, align 8
  %17 = getelementptr inbounds nuw %struct.List, ptr %16, i32 0, i32 1
  %18 = load i32, ptr %17, align 4
  %19 = icmp slt i32 %15, %18
  br i1 %19, label %21, label %20

20:                                               ; preds = %14
  call void @llvm.lifetime.end.p0(i64 4, ptr %5) #7
  br label %32

21:                                               ; preds = %14
  %22 = load ptr, ptr %3, align 8
  %23 = getelementptr inbounds nuw %struct.List, ptr %22, i32 0, i32 3
  %24 = load ptr, ptr %23, align 8
  %25 = load i32, ptr %5, align 4
  %26 = sext i32 %25 to i64
  %27 = getelementptr inbounds %union.ListCell, ptr %24, i64 %26
  %28 = load ptr, ptr %27, align 8
  call void @pfree(ptr noundef %28)
  br label %29

29:                                               ; preds = %21
  %30 = load i32, ptr %5, align 4
  %31 = add i32 %30, 1
  store i32 %31, ptr %5, align 4
  br label %14, !llvm.loop !31

32:                                               ; preds = %20
  br label %33

33:                                               ; preds = %32, %10
  %34 = load ptr, ptr %3, align 8
  %35 = getelementptr inbounds nuw %struct.List, ptr %34, i32 0, i32 3
  %36 = load ptr, ptr %35, align 8
  %37 = load ptr, ptr %3, align 8
  %38 = getelementptr inbounds nuw %struct.List, ptr %37, i32 0, i32 4
  %39 = getelementptr inbounds [0 x %union.ListCell], ptr %38, i64 0, i64 0
  %40 = icmp ne ptr %36, %39
  br i1 %40, label %41, label %45

41:                                               ; preds = %33
  %42 = load ptr, ptr %3, align 8
  %43 = getelementptr inbounds nuw %struct.List, ptr %42, i32 0, i32 3
  %44 = load ptr, ptr %43, align 8
  call void @pfree(ptr noundef %44)
  br label %45

45:                                               ; preds = %41, %33
  %46 = load ptr, ptr %3, align 8
  call void @pfree(ptr noundef %46)
  br label %47

47:                                               ; preds = %45, %9
  ret void
}

; Function Attrs: nounwind uwtable
define dso_local ptr @list_truncate(ptr noundef %0, i32 noundef %1) #0 {
  %3 = alloca ptr, align 8
  %4 = alloca ptr, align 8
  %5 = alloca i32, align 4
  store ptr %0, ptr %4, align 8
  store i32 %1, ptr %5, align 4
  %6 = load i32, ptr %5, align 4
  %7 = icmp sle i32 %6, 0
  br i1 %7, label %8, label %9

8:                                                ; preds = %2
  store ptr null, ptr %3, align 8
  br label %20

9:                                                ; preds = %2
  %10 = load i32, ptr %5, align 4
  %11 = load ptr, ptr %4, align 8
  %12 = call i32 @list_length(ptr noundef %11)
  %13 = icmp slt i32 %10, %12
  br i1 %13, label %14, label %18

14:                                               ; preds = %9
  %15 = load i32, ptr %5, align 4
  %16 = load ptr, ptr %4, align 8
  %17 = getelementptr inbounds nuw %struct.List, ptr %16, i32 0, i32 1
  store i32 %15, ptr %17, align 4
  br label %18

18:                                               ; preds = %14, %9
  %19 = load ptr, ptr %4, align 8
  store ptr %19, ptr %3, align 8
  br label %20

20:                                               ; preds = %18, %8
  %21 = load ptr, ptr %3, align 8
  ret ptr %21
}

; Function Attrs: nounwind uwtable
define dso_local void @list_free(ptr noundef %0) #0 {
  %2 = alloca ptr, align 8
  store ptr %0, ptr %2, align 8
  %3 = load ptr, ptr %2, align 8
  call void @list_free_private(ptr noundef %3, i1 noundef zeroext false)
  ret void
}

; Function Attrs: inlinehint nounwind uwtable
define internal i32 @list_length(ptr noundef %0) #3 {
  %2 = alloca ptr, align 8
  store ptr %0, ptr %2, align 8
  %3 = load ptr, ptr %2, align 8
  %4 = icmp ne ptr %3, null
  br i1 %4, label %5, label %9

5:                                                ; preds = %1
  %6 = load ptr, ptr %2, align 8
  %7 = getelementptr inbounds nuw %struct.List, ptr %6, i32 0, i32 1
  %8 = load i32, ptr %7, align 4
  br label %10

9:                                                ; preds = %1
  br label %10

10:                                               ; preds = %9, %5
  %11 = phi i32 [ %8, %5 ], [ 0, %9 ]
  ret i32 %11
}

; Function Attrs: nounwind uwtable
define dso_local ptr @list_delete_last(ptr noundef %0) #0 {
  %2 = alloca ptr, align 8
  %3 = alloca ptr, align 8
  store ptr %0, ptr %3, align 8
  %4 = load ptr, ptr %3, align 8
  %5 = icmp eq ptr %4, null
  br i1 %5, label %6, label %7

6:                                                ; preds = %1
  store ptr null, ptr %2, align 8
  br label %19

7:                                                ; preds = %1
  %8 = load ptr, ptr %3, align 8
  %9 = call i32 @list_length(ptr noundef %8)
  %10 = icmp sle i32 %9, 1
  br i1 %10, label %11, label %13

11:                                               ; preds = %7
  %12 = load ptr, ptr %3, align 8
  call void @list_free(ptr noundef %12)
  store ptr null, ptr %2, align 8
  br label %19

13:                                               ; preds = %7
  %14 = load ptr, ptr %3, align 8
  %15 = load ptr, ptr %3, align 8
  %16 = call i32 @list_length(ptr noundef %15)
  %17 = sub i32 %16, 1
  %18 = call ptr @list_truncate(ptr noundef %14, i32 noundef %17)
  store ptr %18, ptr %2, align 8
  br label %19

19:                                               ; preds = %13, %11, %6
  %20 = load ptr, ptr %2, align 8
  ret ptr %20
}