; Function Attrs: nounwind uwtable
define dso_local noundef ptr @list_delete_last(ptr noundef %0) local_unnamed_addr #0 {
  %2 = icmp eq ptr %0, null
  br i1 %2, label %list_truncate.exit, label %list_length.exit

list_length.exit:                                 ; preds = %1
  %3 = getelementptr inbounds nuw i8, ptr %0, i64 4
  %4 = load i32, ptr %3, align 4
  %5 = icmp slt i32 %4, 2
  br i1 %5, label %6, label %11

6:                                                ; preds = %list_length.exit
  %7 = getelementptr inbounds nuw i8, ptr %0, i64 16
  %8 = load ptr, ptr %7, align 8
  %9 = getelementptr inbounds nuw i8, ptr %0, i64 24
  %.not.i.i = icmp eq ptr %8, %9
  br i1 %.not.i.i, label %list_free.exit, label %10

10:                                               ; preds = %6
  tail call void @pfree(ptr noundef %8) #9
  br label %list_free.exit

list_free.exit:                                   ; preds = %6, %10
  tail call void @pfree(ptr noundef nonnull %0) #9
  br label %list_truncate.exit

11:                                               ; preds = %list_length.exit
  %12 = add nsw i32 %4, -1
  store i32 %12, ptr %3, align 4
  br label %list_truncate.exit

list_truncate.exit:                               ; preds = %11, %1, %list_free.exit
  %.0 = phi ptr [ null, %list_free.exit ], [ null, %1 ], [ %0, %11 ]
  ret ptr %.0
}